; Function Attrs: mustprogress uwtable
define internal fastcc void @_ZN6google8protobuf8compiler4javaL11FirstLineOfERKNSt7__cxx1112basic_stringIcSt11char_traitsIcESaIcEEE(ptr noalias nonnull align 8 %agg.result, ptr noundef nonnull align 8 dereferenceable(32) %value) unnamed_addr #3 personality ptr @__gxx_personality_v0 {
entry:
  tail call void @_ZNSt7__cxx1112basic_stringIcSt11char_traitsIcESaIcEEC1ERKS4_(ptr noundef nonnull align 8 dereferenceable(32) %agg.result, ptr noundef nonnull align 8 dereferenceable(32) %value)
  %call = tail call noundef i64 @_ZNKSt7__cxx1112basic_stringIcSt11char_traitsIcESaIcEE13find_first_ofEcm(ptr noundef nonnull align 8 dereferenceable(32) %agg.result, i8 noundef signext 10, i64 noundef 0) #22
  %cmp.not = icmp eq i64 %call, -1
  br i1 %cmp.not, label %if.end, label %if.then

if.then:                                          ; preds = %entry
  %call1 = invoke noundef nonnull align 8 dereferenceable(32) ptr @_ZNSt7__cxx1112basic_stringIcSt11char_traitsIcESaIcEE5eraseEmm(ptr noundef nonnull align 8 dereferenceable(32) %agg.result, i64 noundef %call, i64 noundef -1)
          to label %if.end unwind label %lpad

lpad:                                             ; preds = %if.then7, %land.lhs.true, %if.then
  %0 = landingpad { ptr, i32 }
          cleanup
  tail call void @_ZNSt7__cxx1112basic_stringIcSt11char_traitsIcESaIcEED1Ev(ptr noundef nonnull align 8 dereferenceable(32) %agg.result) #22
  resume { ptr, i32 } %0

if.end:                                           ; preds = %if.then, %entry
  %call2 = tail call noundef zeroext i1 @_ZNKSt7__cxx1112basic_stringIcSt11char_traitsIcESaIcEE5emptyEv(ptr noundef nonnull align 8 dereferenceable(32) %agg.result) #22
  br i1 %call2, label %nrvo.skipdtor, label %land.lhs.true

land.lhs.true:                                    ; preds = %if.end
  %call3 = tail call noundef i64 @_ZNKSt7__cxx1112basic_stringIcSt11char_traitsIcESaIcEE4sizeEv(ptr noundef nonnull align 8 dereferenceable(32) %agg.result) #22
  %sub = add i64 %call3, -1
  %call5 = invoke noundef nonnull align 1 dereferenceable(1) ptr @_ZNSt7__cxx1112basic_stringIcSt11char_traitsIcESaIcEEixEm(ptr noundef nonnull align 8 dereferenceable(32) %agg.result, i64 noundef %sub)
          to label %invoke.cont4 unwind label %lpad

invoke.cont4:                                     ; preds = %land.lhs.true
  %1 = load i8, ptr %call5, align 1
  %cmp6 = icmp eq i8 %1, 123
  br i1 %cmp6, label %if.then7, label %nrvo.skipdtor

if.then7:                                         ; preds = %invoke.cont4
  %call9 = invoke noundef nonnull align 8 dereferenceable(32) ptr @_ZNSt7__cxx1112basic_stringIcSt11char_traitsIcESaIcEE6appendEPKc(ptr noundef nonnull align 8 dereferenceable(32) %agg.result, ptr noundef nonnull @.str.50)
          to label %nrvo.skipdtor unwind label %lpad

nrvo.skipdtor:                                    ; preds = %if.end, %invoke.cont4, %if.then7
  ret void
}